; Function Attrs: mustprogress nounwind uwtable
define dso_local void @_ZNK4llvm11ms_demangle14IdentifierNode24outputTemplateParametersERNS_16itanium_demangle12OutputBufferENS0_11OutputFlagsE(ptr nocapture noundef nonnull readonly align 8 dereferenceable(24) %0, ptr noundef nonnull align 8 dereferenceable(36) %1, i32 noundef %2) local_unnamed_addr #0 align 2 {
  %4 = getelementptr inbounds nuw i8, ptr %0, i64 16
  %5 = load ptr, ptr %4, align 8
  %.not = icmp eq ptr %5, null
  br i1 %.not, label %_ZN4llvm16itanium_demangle12OutputBufferlsESt17basic_string_viewIcSt11char_traitsIcEE.exit10, label %6

6:                                                ; preds = %3
  %7 = getelementptr inbounds nuw i8, ptr %1, i64 8
  %8 = load i64, ptr %7, align 8
  %9 = add i64 %8, 1
  %10 = getelementptr inbounds nuw i8, ptr %1, i64 16
  %11 = load i64, ptr %10, align 8
  %12 = icmp ugt i64 %9, %11
  %.pre.i.i = load ptr, ptr %1, align 8
  br i1 %12, label %13, label %_ZN4llvm16itanium_demangle12OutputBuffer4growEm.exit.i.i

13:                                               ; preds = %6
  %14 = add i64 %8, 993
  %15 = shl i64 %11, 1
  %spec.select.i.i.i = tail call i64 @llvm.umax.i64(i64 %15, i64 %14)
  store i64 %spec.select.i.i.i, ptr %10, align 8
  %16 = tail call ptr @realloc(ptr noundef %.pre.i.i, i64 noundef %spec.select.i.i.i) #16
  store ptr %16, ptr %1, align 8
  %17 = icmp eq ptr %16, null
  br i1 %17, label %18, label %._ZN4llvm16itanium_demangle12OutputBuffer4growEm.exit_crit_edge.i.i

._ZN4llvm16itanium_demangle12OutputBuffer4growEm.exit_crit_edge.i.i: ; preds = %13
  %.pre4.i.i = load i64, ptr %7, align 8
  br label %_ZN4llvm16itanium_demangle12OutputBuffer4growEm.exit.i.i

18:                                               ; preds = %13
  tail call void @abort() #17
  unreachable

_ZN4llvm16itanium_demangle12OutputBuffer4growEm.exit.i.i: ; preds = %._ZN4llvm16itanium_demangle12OutputBuffer4growEm.exit_crit_edge.i.i, %6
  %19 = phi i64 [ %8, %6 ], [ %.pre4.i.i, %._ZN4llvm16itanium_demangle12OutputBuffer4growEm.exit_crit_edge.i.i ]
  %20 = phi ptr [ %.pre.i.i, %6 ], [ %16, %._ZN4llvm16itanium_demangle12OutputBuffer4growEm.exit_crit_edge.i.i ]
  %21 = getelementptr inbounds i8, ptr %20, i64 %19
  store i8 60, ptr %21, align 1
  %22 = load i64, ptr %7, align 8
  %23 = add i64 %22, 1
  store i64 %23, ptr %7, align 8
  %24 = load ptr, ptr %4, align 8
  %25 = load ptr, ptr %24, align 8
  %26 = getelementptr inbounds i8, ptr %25, i64 16
  %27 = load ptr, ptr %26, align 8
  tail call void %27(ptr noundef nonnull align 8 dereferenceable(32) %24, ptr noundef nonnull align 8 dereferenceable(36) %1, i32 noundef %2) #15
  %28 = load i64, ptr %7, align 8
  %29 = add i64 %28, 1
  %30 = load i64, ptr %10, align 8
  %31 = icmp ugt i64 %29, %30
  %.pre.i.i5 = load ptr, ptr %1, align 8
  br i1 %31, label %32, label %_ZN4llvm16itanium_demangle12OutputBuffer4growEm.exit.i.i6

32:                                               ; preds = %_ZN4llvm16itanium_demangle12OutputBuffer4growEm.exit.i.i
  %33 = add i64 %28, 993
  %34 = shl i64 %30, 1
  %spec.select.i.i.i7 = tail call i64 @llvm.umax.i64(i64 %34, i64 %33)
  store i64 %spec.select.i.i.i7, ptr %10, align 8
  %35 = tail call ptr @realloc(ptr noundef %.pre.i.i5, i64 noundef %spec.select.i.i.i7) #16
  store ptr %35, ptr %1, align 8
  %36 = icmp eq ptr %35, null
  br i1 %36, label %37, label %._ZN4llvm16itanium_demangle12OutputBuffer4growEm.exit_crit_edge.i.i8

._ZN4llvm16itanium_demangle12OutputBuffer4growEm.exit_crit_edge.i.i8: ; preds = %32
  %.pre4.i.i9 = load i64, ptr %7, align 8
  br label %_ZN4llvm16itanium_demangle12OutputBuffer4growEm.exit.i.i6

37:                                               ; preds = %32
  tail call void @abort() #17
  unreachable

_ZN4llvm16itanium_demangle12OutputBuffer4growEm.exit.i.i6: ; preds = %._ZN4llvm16itanium_demangle12OutputBuffer4growEm.exit_crit_edge.i.i8, %_ZN4llvm16itanium_demangle12OutputBuffer4growEm.exit.i.i
  %38 = phi i64 [ %28, %_ZN4llvm16itanium_demangle12OutputBuffer4growEm.exit.i.i ], [ %.pre4.i.i9, %._ZN4llvm16itanium_demangle12OutputBuffer4growEm.exit_crit_edge.i.i8 ]
  %39 = phi ptr [ %.pre.i.i5, %_ZN4llvm16itanium_demangle12OutputBuffer4growEm.exit.i.i ], [ %35, %._ZN4llvm16itanium_demangle12OutputBuffer4growEm.exit_crit_edge.i.i8 ]
  %40 = getelementptr inbounds i8, ptr %39, i64 %38
  store i8 62, ptr %40, align 1
  %41 = load i64, ptr %7, align 8
  %42 = add i64 %41, 1
  store i64 %42, ptr %7, align 8
  br label %_ZN4llvm16itanium_demangle12OutputBufferlsESt17basic_string_viewIcSt11char_traitsIcEE.exit10

_ZN4llvm16itanium_demangle12OutputBufferlsESt17basic_string_viewIcSt11char_traitsIcEE.exit10: ; preds = %_ZN4llvm16itanium_demangle12OutputBuffer4growEm.exit.i.i6, %3
  ret void
}